target datalayout = "e-m:e-p270:32:32-p271:32:32-p272:64:64-i64:64-i128:128-f80:128-n8:16:32:64-S128"
target triple = "x86_64-pc-linux-gnu"

@tx_size_2d = internal constant [20 x i32] [i32 16, i32 64, i32 256, i32 1024, i32 4096, i32 32, i32 32, i32 128, i32 128, i32 512, i32 512, i32 2048, i32 2048, i32 64, i32 64, i32 256, i32 256, i32 1024, i32 1024, i32 0], align 16

; Function Attrs: nounwind uwtable
define hidden i32 @av1_get_tx_scale(i8 noundef zeroext %0) #0 {
  %2 = alloca i8, align 1
  %3 = alloca i32, align 4
  store i8 %0, ptr %2, align 1
  %4 = load i8, ptr %2, align 1
  %5 = zext i8 %4 to i64
  %6 = getelementptr inbounds [20 x i32], ptr @tx_size_2d, i64 0, i64 %5
  %7 = load i32, ptr %6, align 4
  store i32 %7, ptr %3, align 4
  %8 = load i32, ptr %3, align 4
  %9 = icmp sgt i32 %8, 256
  %10 = zext i1 %9 to i32
  %11 = load i32, ptr %3, align 4
  %12 = icmp sgt i32 %11, 1024
  %13 = zext i1 %12 to i32
  %14 = add nsw i32 %10, %13
  ret i32 %14
}