; Function Attrs: mustprogress nofree norecurse nosync nounwind willreturn memory(none) uwtable
define hidden range(i32 0, 3) i32 @av1_get_tx_scale(i8 noundef zeroext %0) local_unnamed_addr #0 {
  %2 = zext i8 %0 to i64
  %3 = lshr i64 400920, %2
  %4 = trunc nuw nsw i64 %3 to i32
  %5 = and i32 %4, 1
  %6 = lshr i64 6160, %2
  %7 = trunc nuw nsw i64 %6 to i32
  %8 = and i32 %7, 1
  %9 = add nuw nsw i32 %5, %8
  ret i32 %9
}